Certificate:
    Data:
        Version: 3 (0x2)
        Serial Number:
            6e:99:19:56:b4:3a:f4:72:61:8b:a5:9c:be:0b:90:b1:cb:52:d1:b5
        Signature Algorithm: ED25519
        Issuer: CN = localhost
        Validity
            Not Before: Nov 24 04:59:15 2024 GMT
            Not After : Nov 22 04:59:15 2034 GMT
        Subject: CN = localhost
        Subject Public Key Info:
            Public Key Algorithm: ED25519
                ED25519 Public-Key:
                pub:
                    50:08:16:a5:b2:88:be:46:1d:d1:45:a1:0e:77:8e:
                    6f:53:77:ab:c4:52:aa:1f:fc:42:66:5e:0f:a8:54:
                    d3:8b
        X509v3 extensions:
            X509v3 Subject Alternative Name: 
                DNS:localhost, DNS:*.local
            X509v3 Subject Key Identifier: 
                37:70:BF:0A:0A:B7:A6:7E:20:31:68:56:BD:F8:FC:71:99:8E:E6:B2
    Signature Algorithm: ED25519
    Signature Value:
        31:36:3e:8e:ee:26:d6:e5:64:70:9d:64:76:f3:35:d3:43:a8:
        e3:bb:98:cc:39:d4:65:2a:d1:8c:bd:f5:28:ed:e3:8f:36:9c:
        81:85:78:38:77:72:57:c7:3c:7e:54:ba:b5:71:37:84:ec:63:
        34:0b:d9:4c:dc:50:31:18:e3:09
-----BEGIN CERTIFICATE-----
MIIBKTCB3KADAgECAhRumRlWtDr0cmGLpZy+C5Cxy1LRtTAFBgMrZXAwFDESMBAG
A1UEAwwJbG9jYWxob3N0MB4XDTI0MTEyNDA0NTkxNVoXDTM0MTEyMjA0NTkxNVow
FDESMBAGA1UEAwwJbG9jYWxob3N0MCowBQYDK2VwAyEAUAgWpbKIvkYd0UWhDneO
b1N3q8RSqh/8QmZeD6hU04ujQDA+MB0GA1UdEQQWMBSCCWxvY2FsaG9zdIIHKi5s
b2NhbDAdBgNVHQ4EFgQUN3C/Cgq3pn4gMWhWvfj8cZmO5rIwBQYDK2VwA0EAMTY+
ju4m1uVkcJ1kdvM100Oo47uYzDnUZSrRjL31KO3jjzacgYV4OHdyV8c8flS6tXE3
hOxjNAvZTNxQMRjjCQ==
-----END CERTIFICATE-----
